ARM GAS  C:\Users\gortz\AppData\Local\Temp\cc8Fx40x.s 			page 1


   1              		.syntax unified
   2              		.cpu cortex-m3
   3              		.fpu softvfp
   4              		.eabi_attribute 20, 1
   5              		.eabi_attribute 21, 1
   6              		.eabi_attribute 23, 3
   7              		.eabi_attribute 24, 1
   8              		.eabi_attribute 25, 1
   9              		.eabi_attribute 26, 1
  10              		.eabi_attribute 30, 1
  11              		.eabi_attribute 34, 1
  12              		.eabi_attribute 18, 4
  13              		.thumb
  14              		.syntax unified
  15              		.file	"main.c"
  16              		.text
  17              	.Ltext0:
  18              		.cfi_sections	.debug_frame
  19              		.section	.text.setAngle,"ax",%progbits
  20              		.align	2
  21              		.global	setAngle
  22              		.thumb
  23              		.thumb_func
  24              		.type	setAngle, %function
  25              	setAngle:
  26              	.LFB63:
  27              		.file 1 "main.c"
   1:main.c        **** /* ========================================
   2:main.c        ****  *
   3:main.c        ****  * Copyright YOUR COMPANY, THE YEAR
   4:main.c        ****  * All Rights Reserved
   5:main.c        ****  * UNPUBLISHED, LICENSED SOFTWARE.
   6:main.c        ****  *
   7:main.c        ****  * CONFIDENTIAL AND PROPRIETARY INFORMATION
   8:main.c        ****  * WHICH IS THE PROPERTY OF your company.
   9:main.c        ****  *
  10:main.c        ****  * ========================================
  11:main.c        **** */
  12:main.c        **** #include "project.h"
  13:main.c        **** 
  14:main.c        **** void setAngle(uint8_t angle, uint8_t servo_nb) {
  28              		.loc 1 14 0
  29              		.cfi_startproc
  30              		@ args = 0, pretend = 0, frame = 0
  31              		@ frame_needed = 0, uses_anonymous_args = 0
  32              	.LVL0:
  33 0000 10B5     		push	{r4, lr}
  34              		.cfi_def_cfa_offset 8
  35              		.cfi_offset 4, -8
  36              		.cfi_offset 14, -4
  15:main.c        ****     uint16_t pulseWidth = 1200 + ((angle*1200)/180);
  37              		.loc 1 15 0
  38 0002 4FF49663 		mov	r3, #1200
  39 0006 03FB00F0 		mul	r0, r3, r0
  40              	.LVL1:
  41 000a 144B     		ldr	r3, .L5
  42 000c 83FB0023 		smull	r2, r3, r3, r0
ARM GAS  C:\Users\gortz\AppData\Local\Temp\cc8Fx40x.s 			page 2


  43 0010 0344     		add	r3, r3, r0
  44 0012 C017     		asrs	r0, r0, #31
  45 0014 C0EBE310 		rsb	r0, r0, r3, asr #7
  46 0018 00F59660 		add	r0, r0, #1200
  47 001c 84B2     		uxth	r4, r0
  48              	.LVL2:
  16:main.c        ****     if (servo_nb == 0) {
  49              		.loc 1 16 0
  50 001e 69B9     		cbnz	r1, .L2
  51              	.LBB2:
  17:main.c        ****         uint16_t compareValue = (pulseWidth * PWM_DROITE_ReadPeriod())/24000;
  52              		.loc 1 17 0
  53 0020 FFF7FEFF 		bl	PWM_DROITE_ReadPeriod
  54              	.LVL3:
  55 0024 00FB04F0 		mul	r0, r0, r4
  56 0028 0D4C     		ldr	r4, .L5+4
  57              	.LVL4:
  58 002a 84FB0034 		smull	r3, r4, r4, r0
  59 002e C017     		asrs	r0, r0, #31
  60 0030 C0EB6420 		rsb	r0, r0, r4, asr #9
  61              	.LVL5:
  18:main.c        ****         PWM_DROITE_WriteCompare(compareValue);
  62              		.loc 1 18 0
  63 0034 80B2     		uxth	r0, r0
  64 0036 FFF7FEFF 		bl	PWM_DROITE_WriteCompare
  65              	.LVL6:
  66              	.LBE2:
  67 003a 10BD     		pop	{r4, pc}
  68              	.LVL7:
  69              	.L2:
  19:main.c        ****     } else if (servo_nb == 1) {
  70              		.loc 1 19 0
  71 003c 0129     		cmp	r1, #1
  72 003e 0CD1     		bne	.L1
  73              	.LBB3:
  20:main.c        ****         uint16_t compareValue = (pulseWidth * PWM_GAUCHE_ReadPeriod())/24000;
  74              		.loc 1 20 0
  75 0040 FFF7FEFF 		bl	PWM_GAUCHE_ReadPeriod
  76              	.LVL8:
  77 0044 00FB04F0 		mul	r0, r0, r4
  78 0048 054C     		ldr	r4, .L5+4
  79              	.LVL9:
  80 004a 84FB0034 		smull	r3, r4, r4, r0
  81 004e C017     		asrs	r0, r0, #31
  82 0050 C0EB6420 		rsb	r0, r0, r4, asr #9
  83              	.LVL10:
  21:main.c        ****         PWM_GAUCHE_WriteCompare(compareValue);
  84              		.loc 1 21 0
  85 0054 80B2     		uxth	r0, r0
  86 0056 FFF7FEFF 		bl	PWM_GAUCHE_WriteCompare
  87              	.LVL11:
  88              	.L1:
  89 005a 10BD     		pop	{r4, pc}
  90              	.L6:
  91              		.align	2
  92              	.L5:
  93 005c B7600BB6 		.word	-1240768329
ARM GAS  C:\Users\gortz\AppData\Local\Temp\cc8Fx40x.s 			page 3


  94 0060 F1197605 		.word	91625969
  95              	.LBE3:
  96              		.cfi_endproc
  97              	.LFE63:
  98              		.size	setAngle, .-setAngle
  99              		.section	.text.main,"ax",%progbits
 100              		.align	2
 101              		.global	main
 102              		.thumb
 103              		.thumb_func
 104              		.type	main, %function
 105              	main:
 106              	.LFB64:
  22:main.c        ****     }
  23:main.c        ****     
  24:main.c        **** }
  25:main.c        **** 
  26:main.c        **** int main(void)
  27:main.c        **** {
 107              		.loc 1 27 0
 108              		.cfi_startproc
 109              		@ args = 0, pretend = 0, frame = 0
 110              		@ frame_needed = 0, uses_anonymous_args = 0
 111 0000 38B5     		push	{r3, r4, r5, lr}
 112              		.cfi_def_cfa_offset 16
 113              		.cfi_offset 3, -16
 114              		.cfi_offset 4, -12
 115              		.cfi_offset 5, -8
 116              		.cfi_offset 14, -4
  28:main.c        ****     CyGlobalIntEnable; /* Enable global interrupts. */
 117              		.loc 1 28 0
 118              		.syntax unified
 119              	@ 28 "main.c" 1
 120 0002 62B6     		CPSIE   i
 121              	@ 0 "" 2
  29:main.c        ****     PWM_DROITE_Start();
 122              		.loc 1 29 0
 123              		.thumb
 124              		.syntax unified
 125 0004 FFF7FEFF 		bl	PWM_DROITE_Start
 126              	.LVL12:
  30:main.c        ****     timer_clock_1_Start();
 127              		.loc 1 30 0
 128 0008 FFF7FEFF 		bl	timer_clock_1_Start
 129              	.LVL13:
  31:main.c        ****     PWM_GAUCHE_Start();
 130              		.loc 1 31 0
 131 000c FFF7FEFF 		bl	PWM_GAUCHE_Start
 132              	.LVL14:
  32:main.c        ****     timer_clock_2_Start();
 133              		.loc 1 32 0
 134 0010 FFF7FEFF 		bl	timer_clock_2_Start
 135              	.LVL15:
  33:main.c        ****     TIMER_Start();
 136              		.loc 1 33 0
 137 0014 FFF7FEFF 		bl	TIMER_Start
 138              	.LVL16:
ARM GAS  C:\Users\gortz\AppData\Local\Temp\cc8Fx40x.s 			page 4


  34:main.c        ****     LCD_Char_1_Start();
 139              		.loc 1 34 0
 140 0018 FFF7FEFF 		bl	LCD_Char_1_Start
 141              	.LVL17:
  35:main.c        ****     ADC_POTENTIOMETRE_Start();
 142              		.loc 1 35 0
 143 001c FFF7FEFF 		bl	ADC_POTENTIOMETRE_Start
 144              	.LVL18:
  36:main.c        ****     uint8_t current_servo = 0;
 145              		.loc 1 36 0
 146 0020 0025     		movs	r5, #0
 147              	.LVL19:
 148              	.L10:
 149              	.LBB4:
  37:main.c        ****     /* Place your initialization/startup code here (e.g. MyInst_Start()) */
  38:main.c        **** 
  39:main.c        ****     for(;;)
  40:main.c        ****     {
  41:main.c        ****         /* Place your application code here. */
  42:main.c        ****         ADC_POTENTIOMETRE_StartConvert();
 150              		.loc 1 42 0
 151 0022 FFF7FEFF 		bl	ADC_POTENTIOMETRE_StartConvert
 152              	.LVL20:
 153              	.L8:
  43:main.c        ****         while (!ADC_POTENTIOMETRE_IsEndConversion(ADC_POTENTIOMETRE_WAIT_FOR_RESULT));
 154              		.loc 1 43 0 discriminator 1
 155 0026 0020     		movs	r0, #0
 156 0028 FFF7FEFF 		bl	ADC_POTENTIOMETRE_IsEndConversion
 157              	.LVL21:
 158 002c 0028     		cmp	r0, #0
 159 002e FAD0     		beq	.L8
  44:main.c        ****         uint16_t potValue = ADC_POTENTIOMETRE_GetResult16();
 160              		.loc 1 44 0
 161 0030 FFF7FEFF 		bl	ADC_POTENTIOMETRE_GetResult16
 162              	.LVL22:
 163 0034 84B2     		uxth	r4, r0
 164              	.LVL23:
  45:main.c        ****         LCD_Char_1_Position(0,0);
 165              		.loc 1 45 0
 166 0036 0021     		movs	r1, #0
 167 0038 0846     		mov	r0, r1
 168 003a FFF7FEFF 		bl	LCD_Char_1_Position
 169              	.LVL24:
  46:main.c        ****         LCD_Char_1_PrintString("Pot=");
 170              		.loc 1 46 0
 171 003e 1348     		ldr	r0, .L12
 172 0040 FFF7FEFF 		bl	LCD_Char_1_PrintString
 173              	.LVL25:
  47:main.c        ****         LCD_Char_1_PrintNumber(potValue);
 174              		.loc 1 47 0
 175 0044 2046     		mov	r0, r4
 176 0046 FFF7FEFF 		bl	LCD_Char_1_PrintU32Number
 177              	.LVL26:
  48:main.c        ****         uint8_t angle = (uint8_t)((potValue * 180) / 1023);
 178              		.loc 1 48 0
 179 004a B423     		movs	r3, #180
 180 004c 03FB04F3 		mul	r3, r3, r4
ARM GAS  C:\Users\gortz\AppData\Local\Temp\cc8Fx40x.s 			page 5


 181 0050 0F4C     		ldr	r4, .L12+4
 182              	.LVL27:
 183 0052 84FB0324 		smull	r2, r4, r4, r3
 184 0056 1C44     		add	r4, r4, r3
 185 0058 DB17     		asrs	r3, r3, #31
 186 005a C3EB6424 		rsb	r4, r3, r4, asr #9
 187 005e E4B2     		uxtb	r4, r4
 188              	.LVL28:
  49:main.c        ****         if (SWITCH_4_Read() == 1) {
 189              		.loc 1 49 0
 190 0060 FFF7FEFF 		bl	SWITCH_4_Read
 191              	.LVL29:
 192 0064 0128     		cmp	r0, #1
 193 0066 08D1     		bne	.L9
  50:main.c        ****             LED_1_Write(1 - current_servo);
 194              		.loc 1 50 0
 195 0068 C5F10105 		rsb	r5, r5, #1
 196              	.LVL30:
 197 006c EDB2     		uxtb	r5, r5
 198 006e 2846     		mov	r0, r5
 199 0070 FFF7FEFF 		bl	LED_1_Write
 200              	.LVL31:
  51:main.c        ****             current_servo = 1 - current_servo;
  52:main.c        ****             CyDelay(200);
 201              		.loc 1 52 0
 202 0074 C820     		movs	r0, #200
 203 0076 FFF7FEFF 		bl	CyDelay
 204              	.LVL32:
 205              	.L9:
  53:main.c        ****         }
  54:main.c        ****         setAngle(angle, current_servo);
 206              		.loc 1 54 0
 207 007a 2946     		mov	r1, r5
 208 007c 2046     		mov	r0, r4
 209 007e FFF7FEFF 		bl	setAngle
 210              	.LVL33:
  55:main.c        ****         CyDelay(50);
 211              		.loc 1 55 0
 212 0082 3220     		movs	r0, #50
 213 0084 FFF7FEFF 		bl	CyDelay
 214              	.LVL34:
 215              	.LBE4:
  56:main.c        ****     }
 216              		.loc 1 56 0
 217 0088 CBE7     		b	.L10
 218              	.L13:
 219 008a 00BF     		.align	2
 220              	.L12:
 221 008c 00000000 		.word	.LC0
 222 0090 03082080 		.word	-2145384445
 223              		.cfi_endproc
 224              	.LFE64:
 225              		.size	main, .-main
 226              		.section	.rodata.str1.4,"aMS",%progbits,1
 227              		.align	2
 228              	.LC0:
 229 0000 506F743D 		.ascii	"Pot=\000"
ARM GAS  C:\Users\gortz\AppData\Local\Temp\cc8Fx40x.s 			page 6


 229      00
 230              		.text
 231              	.Letext0:
 232              		.file 2 "c:\\program files (x86)\\cypress\\psoc creator\\4.4\\psoc creator\\import\\gnu\\arm\\5.4.
 233              		.file 3 "c:\\program files (x86)\\cypress\\psoc creator\\4.4\\psoc creator\\import\\gnu\\arm\\5.4.
 234              		.file 4 "Generated_Source\\PSoC5/cytypes.h"
 235              		.file 5 "Generated_Source\\PSoC5/PWM_DROITE.h"
 236              		.file 6 "Generated_Source\\PSoC5/PWM_GAUCHE.h"
 237              		.file 7 "Generated_Source\\PSoC5/ADC_POTENTIOMETRE.h"
 238              		.file 8 "Generated_Source\\PSoC5/LCD_Char_1.h"
 239              		.file 9 "Generated_Source\\PSoC5/SWITCH_4.h"
 240              		.file 10 "Generated_Source\\PSoC5/LED_1.h"
 241              		.file 11 "Generated_Source\\PSoC5/CyLib.h"
 242              		.file 12 "Generated_Source\\PSoC5/timer_clock_1.h"
 243              		.file 13 "Generated_Source\\PSoC5/timer_clock_2.h"
 244              		.file 14 "Generated_Source\\PSoC5/TIMER.h"
 245              		.file 15 "Generated_Source\\PSoC5/core_cm3.h"